ccopy_reg
_reconstructor
p1
(cargparse
Namespace
p2
c__builtin__
object
p3
NtRp4
(dp5
S'num_epochs'
p6
I10
sS'grad_clip'
p7
F5
sS'rnn_size'
p8
I1024
sS'data_dir'
p9
S'./data/apple/'
p10
sS'vocab_size'
p11
I94
sS'learning_rate'
p12
F0.002
sS'save_dir'
p13
S'save'
p14
sS'seq_length'
p15
I100
sS'batch_size'
p16
I50
sS'decay_rate'
p17
F0.96999999999999997
sS'init_from'
p18
S'save/'
p19
sS'log_dir'
p20
S'logs'
p21
sS'num_layers'
p22
I2
sS'input_keep_prob'
p23
F1
sS'model'
p24
S'lstm'
p25
sS'save_every'
p26
I1000
sS'output_keep_prob'
p27
F1
sb.